target datalayout = "e-m:e-p270:32:32-p271:32:32-p272:64:64-i64:64-i128:128-f80:128-n8:16:32:64-S128"
target triple = "x86_64-pc-linux-gnu"

; Function Attrs: nounwind uwtable
define internal i32 @decGetDigits(ptr noundef %0, i32 noundef %1) #0 {
  %3 = alloca ptr, align 8
  %4 = alloca i32, align 4
  %5 = alloca ptr, align 8
  %6 = alloca i32, align 4
  store ptr %0, ptr %3, align 8, !tbaa !12
  store i32 %1, ptr %4, align 4, !tbaa !8
  call void @llvm.lifetime.start.p0(i64 8, ptr %5) #7
  %7 = load ptr, ptr %3, align 8, !tbaa !12
  %8 = load i32, ptr %4, align 4, !tbaa !8
  %9 = sub nsw i32 %8, 1
  %10 = sext i32 %9 to i64
  %11 = getelementptr inbounds i16, ptr %7, i64 %10
  store ptr %11, ptr %5, align 8, !tbaa !12
  call void @llvm.lifetime.start.p0(i64 4, ptr %6) #7
  %12 = load i32, ptr %4, align 4, !tbaa !8
  %13 = sub nsw i32 %12, 1
  %14 = mul nsw i32 %13, 3
  %15 = add nsw i32 %14, 1
  store i32 %15, ptr %6, align 4, !tbaa !8
  br label %16

16:                                               ; preds = %49, %2
  %17 = load ptr, ptr %5, align 8, !tbaa !12
  %18 = load ptr, ptr %3, align 8, !tbaa !12
  %19 = icmp uge ptr %17, %18
  br i1 %19, label %20, label %52

20:                                               ; preds = %16
  %21 = load ptr, ptr %5, align 8, !tbaa !12
  %22 = load i16, ptr %21, align 2, !tbaa !14
  %23 = zext i16 %22 to i32
  %24 = icmp eq i32 %23, 0
  br i1 %24, label %25, label %32

25:                                               ; preds = %20
  %26 = load i32, ptr %6, align 4, !tbaa !8
  %27 = icmp eq i32 %26, 1
  br i1 %27, label %28, label %29

28:                                               ; preds = %25
  br label %52

29:                                               ; preds = %25
  %30 = load i32, ptr %6, align 4, !tbaa !8
  %31 = sub nsw i32 %30, 3
  store i32 %31, ptr %6, align 4, !tbaa !8
  br label %49

32:                                               ; preds = %20
  %33 = load ptr, ptr %5, align 8, !tbaa !12
  %34 = load i16, ptr %33, align 2, !tbaa !14
  %35 = zext i16 %34 to i32
  %36 = icmp slt i32 %35, 10
  br i1 %36, label %37, label %38

37:                                               ; preds = %32
  br label %52

38:                                               ; preds = %32
  %39 = load i32, ptr %6, align 4, !tbaa !8
  %40 = add nsw i32 %39, 1
  store i32 %40, ptr %6, align 4, !tbaa !8
  %41 = load ptr, ptr %5, align 8, !tbaa !12
  %42 = load i16, ptr %41, align 2, !tbaa !14
  %43 = zext i16 %42 to i32
  %44 = icmp slt i32 %43, 100
  br i1 %44, label %45, label %46

45:                                               ; preds = %38
  br label %52

46:                                               ; preds = %38
  %47 = load i32, ptr %6, align 4, !tbaa !8
  %48 = add nsw i32 %47, 1
  store i32 %48, ptr %6, align 4, !tbaa !8
  br label %52

49:                                               ; preds = %29
  %50 = load ptr, ptr %5, align 8, !tbaa !12
  %51 = getelementptr inbounds i16, ptr %50, i32 -1
  store ptr %51, ptr %5, align 8, !tbaa !12
  br label %16, !llvm.loop !20

52:                                               ; preds = %46, %45, %37, %28, %16
  %53 = load i32, ptr %6, align 4, !tbaa !8
  call void @llvm.lifetime.end.p0(i64 4, ptr %6) #7
  call void @llvm.lifetime.end.p0(i64 8, ptr %5) #7
  ret i32 %53
}