; Function Attrs: nofree norecurse nosync nounwind memory(argmem: read) uwtable
define internal fastcc i32 @decGetDigits(ptr noundef readonly captures(address) %0, i32 noundef %1) unnamed_addr #3 {
  %3 = add nsw i32 %1, -1
  %4 = mul nsw i32 %3, 3
  %5 = add nsw i32 %4, 1
  %.not16 = icmp slt i32 %1, 1
  br i1 %.not16, label %.loopexit, label %.lr.ph.preheader

.lr.ph.preheader:                                 ; preds = %2
  %6 = zext nneg i32 %3 to i64
  %7 = getelementptr inbounds nuw i16, ptr %0, i64 %6
  br label %.lr.ph

.lr.ph:                                           ; preds = %.lr.ph.preheader, %12
  %.018 = phi i32 [ %13, %12 ], [ %5, %.lr.ph.preheader ]
  %.01317 = phi ptr [ %14, %12 ], [ %7, %.lr.ph.preheader ]
  %8 = load i16, ptr %.01317, align 2, !tbaa !11
  %9 = icmp eq i16 %8, 0
  br i1 %9, label %10, label %15

10:                                               ; preds = %.lr.ph
  %11 = icmp eq i32 %.018, 1
  br i1 %11, label %.loopexit, label %12

12:                                               ; preds = %10
  %13 = add nsw i32 %.018, -3
  %14 = getelementptr inbounds i8, ptr %.01317, i64 -2
  %.not = icmp ult ptr %14, %0
  br i1 %.not, label %.loopexit, label %.lr.ph, !llvm.loop !15

15:                                               ; preds = %.lr.ph
  %16 = icmp ult i16 %8, 10
  br i1 %16, label %.loopexit, label %17

17:                                               ; preds = %15
  %18 = icmp ult i16 %8, 100
  %spec.select.v = select i1 %18, i32 1, i32 2
  %spec.select = add nsw i32 %spec.select.v, %.018
  br label %.loopexit

.loopexit:                                        ; preds = %12, %10, %2, %17, %15
  %.1 = phi i32 [ %.018, %15 ], [ %spec.select, %17 ], [ %5, %2 ], [ %13, %12 ], [ 1, %10 ]
  ret i32 %.1
}